target datalayout = "e-m:e-p270:32:32-p271:32:32-p272:64:64-i64:64-i128:128-f80:128-n8:16:32:64-S128"
target triple = "x86_64-pc-linux-gnu"

%"struct.pkpy::Str" = type { i32, i8, ptr, [16 x i8] }

@_ZN4pkpy3StrC1Eib = unnamed_addr alias void (ptr, i32, i1), ptr @_ZN4pkpy3StrC2Eib
@_ZN4pkpy3StrC1EPKc = unnamed_addr alias void (ptr, ptr), ptr @_ZN4pkpy3StrC2EPKc
@_ZN4pkpy3StrD1Ev = unnamed_addr alias void (ptr), ptr @_ZN4pkpy3StrD2Ev

; Function Attrs: mustprogress uwtable
define void @_ZNK4pkpy3StrplERKS0_(ptr dead_on_unwind noalias writable sret(%"struct.pkpy::Str") align 8 %0, ptr noundef nonnull align 8 dereferenceable(32) %1, ptr noundef nonnull align 8 dereferenceable(32) %2) #4 align 2 {
  %4 = alloca ptr, align 8
  %5 = alloca ptr, align 8
  %6 = alloca ptr, align 8
  %7 = alloca i1, align 1
  store ptr %0, ptr %4, align 8
  store ptr %1, ptr %5, align 8
  store ptr %2, ptr %6, align 8
  %8 = load ptr, ptr %5, align 8
  store i1 false, ptr %7, align 1
  %9 = getelementptr inbounds %"struct.pkpy::Str", ptr %8, i32 0, i32 0
  %10 = load i32, ptr %9, align 8
  %11 = load ptr, ptr %6, align 8
  %12 = getelementptr inbounds %"struct.pkpy::Str", ptr %11, i32 0, i32 0
  %13 = load i32, ptr %12, align 8
  %14 = add nsw i32 %10, %13
  %15 = getelementptr inbounds %"struct.pkpy::Str", ptr %8, i32 0, i32 1
  %16 = load i8, ptr %15, align 4
  %17 = trunc i8 %16 to i1
  br i1 %17, label %18, label %23

18:                                               ; preds = %3
  %19 = load ptr, ptr %6, align 8
  %20 = getelementptr inbounds %"struct.pkpy::Str", ptr %19, i32 0, i32 1
  %21 = load i8, ptr %20, align 4
  %22 = trunc i8 %21 to i1
  br label %23

23:                                               ; preds = %18, %3
  %24 = phi i1 [ false, %3 ], [ %22, %18 ]
  call void @_ZN4pkpy3StrC1Eib(ptr noundef nonnull align 8 dereferenceable(32) %0, i32 noundef %14, i1 noundef zeroext %24)
  %25 = getelementptr inbounds %"struct.pkpy::Str", ptr %0, i32 0, i32 2
  %26 = load ptr, ptr %25, align 8
  %27 = getelementptr inbounds %"struct.pkpy::Str", ptr %8, i32 0, i32 2
  %28 = load ptr, ptr %27, align 8
  %29 = getelementptr inbounds %"struct.pkpy::Str", ptr %8, i32 0, i32 0
  %30 = load i32, ptr %29, align 8
  %31 = sext i32 %30 to i64
  call void @llvm.memcpy.p0.p0.i64(ptr align 1 %26, ptr align 1 %28, i64 %31, i1 false)
  %32 = getelementptr inbounds %"struct.pkpy::Str", ptr %0, i32 0, i32 2
  %33 = load ptr, ptr %32, align 8
  %34 = getelementptr inbounds %"struct.pkpy::Str", ptr %8, i32 0, i32 0
  %35 = load i32, ptr %34, align 8
  %36 = sext i32 %35 to i64
  %37 = getelementptr inbounds i8, ptr %33, i64 %36
  %38 = load ptr, ptr %6, align 8
  %39 = getelementptr inbounds %"struct.pkpy::Str", ptr %38, i32 0, i32 2
  %40 = load ptr, ptr %39, align 8
  %41 = load ptr, ptr %6, align 8
  %42 = getelementptr inbounds %"struct.pkpy::Str", ptr %41, i32 0, i32 0
  %43 = load i32, ptr %42, align 8
  %44 = sext i32 %43 to i64
  call void @llvm.memcpy.p0.p0.i64(ptr align 1 %37, ptr align 1 %40, i64 %44, i1 false)
  %45 = getelementptr inbounds %"struct.pkpy::Str", ptr %0, i32 0, i32 2
  %46 = load ptr, ptr %45, align 8
  %47 = getelementptr inbounds %"struct.pkpy::Str", ptr %0, i32 0, i32 0
  %48 = load i32, ptr %47, align 8
  %49 = sext i32 %48 to i64
  %50 = getelementptr inbounds i8, ptr %46, i64 %49
  store i8 0, ptr %50, align 1
  store i1 true, ptr %7, align 1
  %51 = load i1, ptr %7, align 1
  br i1 %51, label %53, label %52

52:                                               ; preds = %23
  call void @_ZN4pkpy3StrD1Ev(ptr noundef nonnull align 8 dereferenceable(32) %0) #3
  br label %53

53:                                               ; preds = %52, %23
  ret void
}

; Function Attrs: mustprogress uwtable
define void @_ZN4pkpyplEPKcRKNS_3StrE(ptr dead_on_unwind noalias writable sret(%"struct.pkpy::Str") align 8 %0, ptr noundef %1, ptr noundef nonnull align 8 dereferenceable(32) %2) #4 personality ptr @__gxx_personality_v0 {
  %4 = alloca ptr, align 8
  %5 = alloca ptr, align 8
  %6 = alloca ptr, align 8
  %7 = alloca %"struct.pkpy::Str", align 8
  %8 = alloca ptr, align 8
  %9 = alloca i32, align 4
  store ptr %0, ptr %4, align 8
  store ptr %1, ptr %5, align 8
  store ptr %2, ptr %6, align 8
  %10 = load ptr, ptr %5, align 8
  call void @_ZN4pkpy3StrC1EPKc(ptr noundef nonnull align 8 dereferenceable(32) %7, ptr noundef %10)
  %11 = load ptr, ptr %6, align 8
  invoke void @_ZNK4pkpy3StrplERKS0_(ptr dead_on_unwind writable sret(%"struct.pkpy::Str") align 8 %0, ptr noundef nonnull align 8 dereferenceable(32) %7, ptr noundef nonnull align 8 dereferenceable(32) %11)
          to label %12 unwind label %13

12:                                               ; preds = %3
  call void @_ZN4pkpy3StrD1Ev(ptr noundef nonnull align 8 dereferenceable(32) %7) #3
  ret void

13:                                               ; preds = %3
  %14 = landingpad { ptr, i32 }
          cleanup
  %15 = extractvalue { ptr, i32 } %14, 0
  store ptr %15, ptr %8, align 8
  %16 = extractvalue { ptr, i32 } %14, 1
  store i32 %16, ptr %9, align 4
  call void @_ZN4pkpy3StrD1Ev(ptr noundef nonnull align 8 dereferenceable(32) %7) #3
  br label %17

17:                                               ; preds = %13
  %18 = load ptr, ptr %8, align 8
  %19 = load i32, ptr %9, align 4
  %20 = insertvalue { ptr, i32 } poison, ptr %18, 0
  %21 = insertvalue { ptr, i32 } %20, i32 %19, 1
  resume { ptr, i32 } %21
}